target datalayout = "e-m:e-p270:32:32-p271:32:32-p272:64:64-i64:64-i128:128-f80:128-n8:16:32:64-S128"
target triple = "x86_64-pc-linux-gnu"

%struct.strbuf = type { i64, i64, ptr }
%struct.helper_data = type { ptr, ptr, ptr, i16, ptr, ptr, %struct.refspec, %struct.git_transport_options }
%struct.refspec = type { ptr, i32, i32, i32 }
%struct.git_transport_options = type { i16, i32, ptr, ptr, ptr, ptr, ptr, %struct.list_objects_filter_options, ptr, ptr }
%struct.list_objects_filter_options = type { %struct.strbuf, i32, i8, ptr, i64, i64, i32, i64, i64, ptr }
%struct.transport = type { ptr, ptr, ptr, ptr, ptr, i8, ptr, i8, ptr, ptr, %struct.string_list, i8, ptr, i32, ptr }
%struct.string_list = type { ptr, i64, i64, i8, ptr }
%struct.child_process = type { %struct.strvec, %struct.strvec, i32, i32, i64, ptr, ptr, i32, i32, i32, ptr, i16, ptr }
%struct.strvec = type { ptr, i64, i64 }

@debug = internal global i32 0, align 4
@stderr = external global ptr, align 8
@.str.93 = private unnamed_addr constant [2 x i8] c"\0A\00", align 1
@.str.154 = private unnamed_addr constant [23 x i8] c"Debug: Disconnecting.\0A\00", align 1

; Function Attrs: nounwind uwtable
define internal i32 @disconnect_helper(ptr noundef %0) #0 {
  %2 = alloca ptr, align 8
  %3 = alloca ptr, align 8
  %4 = alloca i32, align 4
  store ptr %0, ptr %2, align 8, !tbaa !4
  call void @llvm.lifetime.start.p0(i64 8, ptr %3) #12
  %5 = load ptr, ptr %2, align 8, !tbaa !4
  %6 = getelementptr inbounds nuw %struct.transport, ptr %5, i32 0, i32 3
  %7 = load ptr, ptr %6, align 8, !tbaa !30
  store ptr %7, ptr %3, align 8, !tbaa !11
  call void @llvm.lifetime.start.p0(i64 4, ptr %4) #12
  store i32 0, ptr %4, align 4, !tbaa !29
  %8 = load ptr, ptr %3, align 8, !tbaa !11
  %9 = getelementptr inbounds nuw %struct.helper_data, ptr %8, i32 0, i32 1
  %10 = load ptr, ptr %9, align 8, !tbaa !84
  %11 = icmp ne ptr %10, null
  br i1 %11, label %12, label %72

12:                                               ; preds = %1
  %13 = load i32, ptr @debug, align 4, !tbaa !29
  %14 = icmp ne i32 %13, 0
  br i1 %14, label %15, label %18

15:                                               ; preds = %12
  %16 = load ptr, ptr @stderr, align 8, !tbaa !81
  %17 = call i32 (ptr, ptr, ...) @fprintf(ptr noundef %16, ptr noundef @.str.154) #12
  br label %18

18:                                               ; preds = %15, %12
  %19 = load ptr, ptr %3, align 8, !tbaa !11
  %20 = getelementptr inbounds nuw %struct.helper_data, ptr %19, i32 0, i32 3
  %21 = load i16, ptr %20, align 8
  %22 = lshr i16 %21, 10
  %23 = and i16 %22, 1
  %24 = zext i16 %23 to i32
  %25 = icmp ne i32 %24, 0
  br i1 %25, label %35, label %26

26:                                               ; preds = %18
  %27 = call i32 @sigchain_push(i32 noundef 13, ptr noundef inttoptr (i64 1 to ptr))
  %28 = load ptr, ptr %3, align 8, !tbaa !11
  %29 = getelementptr inbounds nuw %struct.helper_data, ptr %28, i32 0, i32 1
  %30 = load ptr, ptr %29, align 8, !tbaa !84
  %31 = getelementptr inbounds nuw %struct.child_process, ptr %30, i32 0, i32 7
  %32 = load i32, ptr %31, align 8, !tbaa !89
  %33 = call i64 @xwrite(i32 noundef %32, ptr noundef @.str.93, i64 noundef 1)
  %34 = call i32 @sigchain_pop(i32 noundef 13)
  br label %35

35:                                               ; preds = %26, %18
  %36 = load ptr, ptr %3, align 8, !tbaa !11
  %37 = getelementptr inbounds nuw %struct.helper_data, ptr %36, i32 0, i32 1
  %38 = load ptr, ptr %37, align 8, !tbaa !84
  %39 = getelementptr inbounds nuw %struct.child_process, ptr %38, i32 0, i32 7
  %40 = load i32, ptr %39, align 8, !tbaa !89
  %41 = call i32 @close(i32 noundef %40)
  %42 = load ptr, ptr %3, align 8, !tbaa !11
  %43 = getelementptr inbounds nuw %struct.helper_data, ptr %42, i32 0, i32 1
  %44 = load ptr, ptr %43, align 8, !tbaa !84
  %45 = getelementptr inbounds nuw %struct.child_process, ptr %44, i32 0, i32 8
  %46 = load i32, ptr %45, align 4, !tbaa !85
  %47 = call i32 @close(i32 noundef %46)
  %48 = load ptr, ptr %3, align 8, !tbaa !11
  %49 = getelementptr inbounds nuw %struct.helper_data, ptr %48, i32 0, i32 2
  %50 = load ptr, ptr %49, align 8, !tbaa !104
  %51 = call i32 @fclose(ptr noundef %50)
  %52 = load ptr, ptr %3, align 8, !tbaa !11
  %53 = getelementptr inbounds nuw %struct.helper_data, ptr %52, i32 0, i32 1
  %54 = load ptr, ptr %53, align 8, !tbaa !84
  %55 = call i32 @finish_command(ptr noundef %54)
  store i32 %55, ptr %4, align 4, !tbaa !29
  br label %56

56:                                               ; preds = %35
  %57 = load ptr, ptr %3, align 8, !tbaa !11
  %58 = getelementptr inbounds nuw %struct.helper_data, ptr %57, i32 0, i32 0
  %59 = load ptr, ptr %58, align 8, !tbaa !13
  call void @free(ptr noundef %59) #12
  %60 = load ptr, ptr %3, align 8, !tbaa !11
  %61 = getelementptr inbounds nuw %struct.helper_data, ptr %60, i32 0, i32 0
  store ptr null, ptr %61, align 8, !tbaa !13
  br label %62

62:                                               ; preds = %56
  br label %63

63:                                               ; preds = %62
  br label %64

64:                                               ; preds = %63
  %65 = load ptr, ptr %3, align 8, !tbaa !11
  %66 = getelementptr inbounds nuw %struct.helper_data, ptr %65, i32 0, i32 1
  %67 = load ptr, ptr %66, align 8, !tbaa !84
  call void @free(ptr noundef %67) #12
  %68 = load ptr, ptr %3, align 8, !tbaa !11
  %69 = getelementptr inbounds nuw %struct.helper_data, ptr %68, i32 0, i32 1
  store ptr null, ptr %69, align 8, !tbaa !84
  br label %70

70:                                               ; preds = %64
  br label %71

71:                                               ; preds = %70
  br label %72

72:                                               ; preds = %71, %1
  %73 = load i32, ptr %4, align 4, !tbaa !29
  call void @llvm.lifetime.end.p0(i64 4, ptr %4) #12
  call void @llvm.lifetime.end.p0(i64 8, ptr %3) #12
  ret i32 %73
}

; Function Attrs: nounwind uwtable
define internal i32 @release_helper(ptr noundef %0) #0 {
  %2 = alloca ptr, align 8
  %3 = alloca i32, align 4
  %4 = alloca ptr, align 8
  store ptr %0, ptr %2, align 8, !tbaa !4
  call void @llvm.lifetime.start.p0(i64 4, ptr %3) #12
  store i32 0, ptr %3, align 4, !tbaa !29
  call void @llvm.lifetime.start.p0(i64 8, ptr %4) #12
  %5 = load ptr, ptr %2, align 8, !tbaa !4
  %6 = getelementptr inbounds nuw %struct.transport, ptr %5, i32 0, i32 3
  %7 = load ptr, ptr %6, align 8, !tbaa !30
  store ptr %7, ptr %4, align 8, !tbaa !11
  %8 = load ptr, ptr %4, align 8, !tbaa !11
  %9 = getelementptr inbounds nuw %struct.helper_data, ptr %8, i32 0, i32 6
  call void @refspec_clear(ptr noundef %9)
  %10 = load ptr, ptr %4, align 8, !tbaa !11
  %11 = getelementptr inbounds nuw %struct.helper_data, ptr %10, i32 0, i32 5
  %12 = load ptr, ptr %11, align 8, !tbaa !90
  call void @free(ptr noundef %12) #12
  %13 = load ptr, ptr %4, align 8, !tbaa !11
  %14 = getelementptr inbounds nuw %struct.helper_data, ptr %13, i32 0, i32 4
  %15 = load ptr, ptr %14, align 8, !tbaa !91
  call void @free(ptr noundef %15) #12
  %16 = load ptr, ptr %2, align 8, !tbaa !4
  %17 = call i32 @disconnect_helper(ptr noundef %16)
  store i32 %17, ptr %3, align 4, !tbaa !29
  %18 = load ptr, ptr %2, align 8, !tbaa !4
  %19 = getelementptr inbounds nuw %struct.transport, ptr %18, i32 0, i32 3
  %20 = load ptr, ptr %19, align 8, !tbaa !30
  call void @free(ptr noundef %20) #12
  %21 = load i32, ptr %3, align 4, !tbaa !29
  call void @llvm.lifetime.end.p0(i64 8, ptr %4) #12
  call void @llvm.lifetime.end.p0(i64 4, ptr %3) #12
  ret i32 %21
}