; Function Attrs: nounwind uwtable
define internal i32 @release_helper(ptr noundef readonly captures(none) %0) #0 {
  %2 = getelementptr inbounds nuw i8, ptr %0, i64 24
  %3 = load ptr, ptr %2, align 8, !tbaa !24
  %4 = getelementptr inbounds nuw i8, ptr %3, i64 48
  tail call void @refspec_clear(ptr noundef nonnull %4) #19
  %5 = getelementptr inbounds nuw i8, ptr %3, i64 40
  %6 = load ptr, ptr %5, align 8, !tbaa !101
  tail call void @free(ptr noundef %6) #19
  %7 = getelementptr inbounds nuw i8, ptr %3, i64 32
  %8 = load ptr, ptr %7, align 8, !tbaa !100
  tail call void @free(ptr noundef %8) #19
  %.val = load ptr, ptr %2, align 8, !tbaa !24
  %9 = getelementptr inbounds nuw i8, ptr %.val, i64 8
  %10 = load ptr, ptr %9, align 8, !tbaa !71
  %.not.i = icmp eq ptr %10, null
  br i1 %.not.i, label %disconnect_helper.exit, label %11

11:                                               ; preds = %1
  %.b.i = load i1, ptr @debug, align 4
  br i1 %.b.i, label %12, label %15

12:                                               ; preds = %11
  %13 = load ptr, ptr @stderr, align 8, !tbaa !82
  %14 = tail call i64 @fwrite(ptr nonnull @.str.154, i64 22, i64 1, ptr %13) #23
  br label %15

15:                                               ; preds = %12, %11
  %16 = getelementptr inbounds nuw i8, ptr %.val, i64 24
  %17 = load i16, ptr %16, align 8
  %18 = and i16 %17, 1024
  %.not12.i = icmp eq i16 %18, 0
  br i1 %.not12.i, label %19, label %26

19:                                               ; preds = %15
  %20 = tail call i32 @sigchain_push(i32 noundef 13, ptr noundef nonnull inttoptr (i64 1 to ptr)) #19
  %21 = load ptr, ptr %9, align 8, !tbaa !71
  %22 = getelementptr inbounds nuw i8, ptr %21, i64 80
  %23 = load i32, ptr %22, align 8, !tbaa !83
  %24 = tail call i64 @xwrite(i32 noundef %23, ptr noundef nonnull @.str.93, i64 noundef 1) #19
  %25 = tail call i32 @sigchain_pop(i32 noundef 13) #19
  br label %26

26:                                               ; preds = %19, %15
  %27 = load ptr, ptr %9, align 8, !tbaa !71
  %28 = getelementptr inbounds nuw i8, ptr %27, i64 80
  %29 = load i32, ptr %28, align 8, !tbaa !83
  %30 = tail call i32 @close(i32 noundef %29) #19
  %31 = load ptr, ptr %9, align 8, !tbaa !71
  %32 = getelementptr inbounds nuw i8, ptr %31, i64 84
  %33 = load i32, ptr %32, align 4, !tbaa !91
  %34 = tail call i32 @close(i32 noundef %33) #19
  %35 = getelementptr inbounds nuw i8, ptr %.val, i64 16
  %36 = load ptr, ptr %35, align 8, !tbaa !72
  %37 = tail call i32 @fclose(ptr noundef %36)
  %38 = load ptr, ptr %9, align 8, !tbaa !71
  %39 = tail call i32 @finish_command(ptr noundef %38) #19
  %40 = load ptr, ptr %.val, align 8, !tbaa !4
  tail call void @free(ptr noundef %40) #19
  store ptr null, ptr %.val, align 8, !tbaa !4
  %41 = load ptr, ptr %9, align 8, !tbaa !71
  tail call void @free(ptr noundef %41) #19
  store ptr null, ptr %9, align 8, !tbaa !71
  %.pre = load ptr, ptr %2, align 8, !tbaa !24
  br label %disconnect_helper.exit

disconnect_helper.exit:                           ; preds = %1, %26
  %42 = phi ptr [ %.pre, %26 ], [ %.val, %1 ]
  %.0.i = phi i32 [ %39, %26 ], [ 0, %1 ]
  tail call void @free(ptr noundef %42) #19
  ret i32 %.0.i
}